(dp0
I0
S'arabic-f1012.wav'
p1
sI1
S'arabic-f11.wav'
p2
sI2
S'arabic-f1133.wav'
p3
sI3
S'arabic-f1181.wav'
p4
sI4
S'arabic-f1204.wav'
p5
sI5
S'arabic-f1253.wav'
p6
sI6
S'arabic-f13.wav'
p7
sI7
S'arabic-f1394.wav'
p8
sI8
S'arabic-f1426.wav'
p9
sI9
S'arabic-f1455.wav'
p10
sI10
S'arabic-f1456.wav'
p11
sI11
S'arabic-f1487.wav'
p12
sI12
S'arabic-f1699.wav'
p13
sI13
S'arabic-f1769.wav'
p14
sI14
S'arabic-f1778.wav'
p15
sI15
S'arabic-f1810.wav'
p16
sI16
S'arabic-f1828.wav'
p17
sI17
S'arabic-f1832.wav'
p18
sI18
S'arabic-f1841.wav'
p19
sI19
S'arabic-f1885.wav'
p20
sI20
S'arabic-f1894.wav'
p21
sI21
S'arabic-f1897.wav'
p22
sI22
S'arabic-f1899.wav'
p23
sI23
S'arabic-f19.wav'
p24
sI24
S'arabic-f1927.wav'
p25
sI25
S'arabic-f21.wav'
p26
sI26
S'arabic-f23.wav'
p27
sI27
S'arabic-f670.wav'
p28
sI28
S'arabic-f920.wav'
p29
sI29
S'arabic-m1013.wav'
p30
sI30
S'arabic-m1115.wav'
p31
sI31
S'arabic-m1116.wav'
p32
sI32
S'arabic-m12.wav'
p33
sI33
S'arabic-m1203.wav'
p34
sI34
S'arabic-m1391.wav'
p35
sI35
S'arabic-m1392.wav'
p36
sI36
S'arabic-m1393.wav'
p37
sI37
S'arabic-m14.wav'
p38
sI38
S'arabic-m1405.wav'
p39
sI39
S'arabic-m1420.wav'
p40
sI40
S'arabic-m1421.wav'
p41
sI41
S'arabic-m1422.wav'
p42
sI42
S'arabic-m1457.wav'
p43
sI43
S'arabic-m1458.wav'
p44
sI44
S'arabic-m1459.wav'
p45
sI45
S'arabic-m1460.wav'
p46
sI46
S'arabic-m1461.wav'
p47
sI47
S'arabic-m1486.wav'
p48
sI48
S'arabic-m15.wav'
p49
sI49
S'arabic-m1526.wav'
p50
sI50
S'arabic-m1565.wav'
p51
sI51
S'arabic-m1569.wav'
p52
sI52
S'arabic-m16.wav'
p53
sI53
S'arabic-m1677.wav'
p54
sI54
S'arabic-m17.wav'
p55
sI55
S'arabic-m1700.wav'
p56
sI56
S'arabic-m1702.wav'
p57
sI57
S'arabic-m1711.wav'
p58
sI58
S'arabic-m1753.wav'
p59
sI59
S'arabic-m1768.wav'
p60
sI60
S'arabic-m1777.wav'
p61
sI61
S'arabic-m1784.wav'
p62
sI62
S'arabic-m1785.wav'
p63
sI63
S'arabic-m18.wav'
p64
sI64
S'arabic-m1805.wav'
p65
sI65
S'arabic-m1827.wav'
p66
sI66
S'arabic-m1870.wav'
p67
sI67
S'arabic-m1892.wav'
p68
sI68
S'arabic-m1901.wav'
p69
sI69
S'arabic-m1914.wav'
p70
sI70
S'arabic-m1917.wav'
p71
sI71
S'arabic-m1920.wav'
p72
sI72
S'arabic-m20.wav'
p73
sI73
S'arabic-m22.wav'
p74
sI74
S'arabic-m428.wav'
p75
sI75
S'arabic-m437.wav'
p76
sI76
S'arabic-m471.wav'
p77
sI77
S'arabic-m512.wav'
p78
sI78
S'arabic-m539.wav'
p79
sI79
S'arabic-m625.wav'
p80
sI80
S'arabic-m643.wav'
p81
sI81
S'arabic-m927.wav'
p82
sI82
S'arabic-m970.wav'
p83
sI83
S'cantonese-f1247.wav'
p84
sI84
S'cantonese-f1558.wav'
p85
sI85
S'cantonese-f45.wav'
p86
sI86
S'cantonese-f48.wav'
p87
sI87
S'cantonese-f498.wav'
p88
sI88
S'cantonese-f505.wav'
p89
sI89
S'cantonese-f544.wav'
p90
sI90
S'cantonese-f602.wav'
p91
sI91
S'cantonese-f730.wav'
p92
sI92
S'cantonese-f742.wav'
p93
sI93
S'cantonese-f862.wav'
p94
sI94
S'cantonese-f874.wav'
p95
sI95
S'cantonese-f878.wav'
p96
sI96
S'cantonese-m1480.wav'
p97
sI97
S'cantonese-m46.wav'
p98
sI98
S'cantonese-m462.wav'
p99
sI99
S'cantonese-m47.wav'
p100
sI100
S'cantonese-m49.wav'
p101
sI101
S'cantonese-m494.wav'
p102
sI102
S'cantonese-m502.wav'
p103
sI103
S'cantonese-m885.wav'
p104
sI104
S'dutch-f1003.wav'
p105
sI105
S'dutch-f1004.wav'
p106
sI106
S'dutch-f1260.wav'
p107
sI107
S'dutch-f1261.wav'
p108
sI108
S'dutch-f1263.wav'
p109
sI109
S'dutch-f1264.wav'
p110
sI110
S'dutch-f1265.wav'
p111
sI111
S'dutch-f1266.wav'
p112
sI112
S'dutch-f1269.wav'
p113
sI113
S'dutch-f1270.wav'
p114
sI114
S'dutch-f1271.wav'
p115
sI115
S'dutch-f1274.wav'
p116
sI116
S'dutch-f1462.wav'
p117
sI117
S'dutch-f1463.wav'
p118
sI118
S'dutch-f1466.wav'
p119
sI119
S'dutch-f1468.wav'
p120
sI120
S'dutch-f1473.wav'
p121
sI121
S'dutch-f1476.wav'
p122
sI122
S'dutch-f1479.wav'
p123
sI123
S'dutch-f1481.wav'
p124
sI124
S'dutch-f1482.wav'
p125
sI125
S'dutch-f1740.wav'
p126
sI126
S'dutch-f1743.wav'
p127
sI127
S'dutch-f770.wav'
p128
sI128
S'dutch-f847.wav'
p129
sI129
S'dutch-f896.wav'
p130
sI130
S'dutch-f897.wav'
p131
sI131
S'dutch-m1223.wav'
p132
sI132
S'dutch-m1262.wav'
p133
sI133
S'dutch-m1268.wav'
p134
sI134
S'dutch-m1275.wav'
p135
sI135
S'dutch-m1300.wav'
p136
sI136
S'dutch-m1464.wav'
p137
sI137
S'dutch-m1484.wav'
p138
sI138
S'dutch-m1517.wav'
p139
sI139
S'dutch-m1551.wav'
p140
sI140
S'dutch-m1705.wav'
p141
sI141
S'dutch-m1742.wav'
p142
sI142
S'dutch-m537.wav'
p143
sI143
S'dutch-m57.wav'
p144
sI144
S'dutch-m58.wav'
p145
sI145
S'dutch-m743.wav'
p146
sI146
S'dutch-m895.wav'
p147
sI147
S'dutch-m913.wav'
p148
sI148
S'dutch-m929.wav'
p149
sI149
S'dutch-m956.wav'
p150
sI150
S'french-f1021.wav'
p151
sI151
S'french-f1304.wav'
p152
sI152
S'french-f1429.wav'
p153
sI153
S'french-f1509.wav'
p154
sI154
S'french-f1545.wav'
p155
sI155
S'french-f1662.wav'
p156
sI156
S'french-f1701.wav'
p157
sI157
S'french-f1751.wav'
p158
sI158
S'french-f179.wav'
p159
sI159
S'french-f181.wav'
p160
sI160
S'french-f1813.wav'
p161
sI161
S'french-f182.wav'
p162
sI162
S'french-f183.wav'
p163
sI163
S'french-f1830.wav'
p164
sI164
S'french-f184.wav'
p165
sI165
S'french-f1846.wav'
p166
sI166
S'french-f1889.wav'
p167
sI167
S'french-f1898.wav'
p168
sI168
S'french-f1937.wav'
p169
sI169
S'french-f1938.wav'
p170
sI170
S'french-f1945.wav'
p171
sI171
S'french-f524.wav'
p172
sI172
S'french-f629.wav'
p173
sI173
S'french-f658.wav'
p174
sI174
S'french-f822.wav'
p175
sI175
S'french-f823.wav'
p176
sI176
S'french-f917.wav'
p177
sI177
S'french-f932.wav'
p178
sI178
S'french-f957.wav'
p179
sI179
S'french-m1023.wav'
p180
sI180
S'french-m1062.wav'
p181
sI181
S'french-m1080.wav'
p182
sI182
S'french-m1127.wav'
p183
sI183
S'french-m1160.wav'
p184
sI184
S'french-m1189.wav'
p185
sI185
S'french-m1306.wav'
p186
sI186
S'french-m1424.wav'
p187
sI187
S'french-m1427.wav'
p188
sI188
S'french-m1474.wav'
p189
sI189
S'french-m1535.wav'
p190
sI190
S'french-m1567.wav'
p191
sI191
S'french-m1643.wav'
p192
sI192
S'french-m1729.wav'
p193
sI193
S'french-m1765.wav'
p194
sI194
S'french-m180.wav'
p195
sI195
S'french-m185.wav'
p196
sI196
S'french-m186.wav'
p197
sI197
S'french-m1931.wav'
p198
sI198
S'french-m412.wav'
p199
sI199
S'french-m500.wav'
p200
sI200
S'french-m514.wav'
p201
sI201
S'french-m628.wav'
p202
sI202
S'french-m633.wav'
p203
sI203
S'french-m683.wav'
p204
sI204
S'french-m741.wav'
p205
sI205
S'french-m755.wav'
p206
sI206
S'french-m804.wav'
p207
sI207
S'french-m811.wav'
p208
sI208
S'french-m832.wav'
p209
sI209
S'french-m860.wav'
p210
sI210
S'german-f1064.wav'
p211
sI211
S'german-f1092.wav'
p212
sI212
S'german-f1443.wav'
p213
sI213
S'german-f1452.wav'
p214
sI214
S'german-f1525.wav'
p215
sI215
S'german-f1619.wav'
p216
sI216
S'german-f1681.wav'
p217
sI217
S'german-f1685.wav'
p218
sI218
S'german-f1707.wav'
p219
sI219
S'german-f189.wav'
p220
sI220
S'german-f190.wav'
p221
sI221
S'german-f191.wav'
p222
sI222
S'german-f192.wav'
p223
sI223
S'german-f640.wav'
p224
sI224
S'german-f651.wav'
p225
sI225
S'german-f652.wav'
p226
sI226
S'german-f675.wav'
p227
sI227
S'german-f881.wav'
p228
sI228
S'german-f882.wav'
p229
sI229
S'german-f928.wav'
p230
sI230
S'german-m1255.wav'
p231
sI231
S'german-m1383.wav'
p232
sI232
S'german-m1494.wav'
p233
sI233
S'german-m1877.wav'
p234
sI234
S'german-m1879.wav'
p235
sI235
S'german-m193.wav'
p236
sI236
S'german-m194.wav'
p237
sI237
S'german-m501.wav'
p238
sI238
S'german-m545.wav'
p239
sI239
S'german-m616.wav'
p240
sI240
S'german-m635.wav'
p241
sI241
S'german-m676.wav'
p242
sI242
S'german-m893.wav'
p243
sI243
S'german-m936.wav'
p244
sI244
S'italian-f1177.wav'
p245
sI245
S'italian-f1406.wav'
p246
sI246
S'italian-f1543.wav'
p247
sI247
S'italian-f1686.wav'
p248
sI248
S'italian-f217.wav'
p249
sI249
S'italian-f220.wav'
p250
sI250
S'italian-f473.wav'
p251
sI251
S'italian-f681.wav'
p252
sI252
S'italian-m1043.wav'
p253
sI253
S'italian-m1114.wav'
p254
sI254
S'italian-m1123.wav'
p255
sI255
S'italian-m1124.wav'
p256
sI256
S'italian-m1175.wav'
p257
sI257
S'italian-m1322.wav'
p258
sI258
S'italian-m1489.wav'
p259
sI259
S'italian-m1679.wav'
p260
sI260
S'italian-m1741.wav'
p261
sI261
S'italian-m218.wav'
p262
sI262
S'italian-m219.wav'
p263
sI263
S'italian-m440.wav'
p264
sI264
S'italian-m553.wav'
p265
sI265
S'italian-m589.wav'
p266
sI266
S'italian-m619.wav'
p267
sI267
S'italian-m627.wav'
p268
sI268
S'italian-m641.wav'
p269
sI269
S'italian-m733.wav'
p270
sI270
S'italian-m761.wav'
p271
sI271
S'italian-m839.wav'
p272
sI272
S'italian-m942.wav'
p273
sI273
S'italian-m995.wav'
p274
sI274
S'japanese-f1046.wav'
p275
sI275
S'japanese-f1382.wav'
p276
sI276
S'japanese-f1537.wav'
p277
sI277
S'japanese-f1610.wav'
p278
sI278
S'japanese-f1626.wav'
p279
sI279
S'japanese-f1684.wav'
p280
sI280
S'japanese-f1847.wav'
p281
sI281
S'japanese-f1881.wav'
p282
sI282
S'japanese-f1948.wav'
p283
sI283
S'japanese-f221.wav'
p284
sI284
S'japanese-f222.wav'
p285
sI285
S'japanese-f223.wav'
p286
sI286
S'japanese-f225.wav'
p287
sI287
S'japanese-f226.wav'
p288
sI288
S'japanese-f827.wav'
p289
sI289
S'japanese-m1365.wav'
p290
sI290
S'japanese-m1381.wav'
p291
sI291
S'japanese-m1521.wav'
p292
sI292
S'japanese-m1833.wav'
p293
sI293
S'japanese-m1942.wav'
p294
sI294
S'japanese-m224.wav'
p295
sI295
S'japanese-m227.wav'
p296
sI296
S'japanese-m486.wav'
p297
sI297
S'japanese-m543.wav'
p298
sI298
S'korean-f1006.wav'
p299
sI299
S'korean-f1118.wav'
p300
sI300
S'korean-f1126.wav'
p301
sI301
S'korean-f1145.wav'
p302
sI302
S'korean-f1196.wav'
p303
sI303
S'korean-f1386.wav'
p304
sI304
S'korean-f1663.wav'
p305
sI305
S'korean-f1687.wav'
p306
sI306
S'korean-f1690.wav'
p307
sI307
S'korean-f1696.wav'
p308
sI308
S'korean-f1715.wav'
p309
sI309
S'korean-f1722.wav'
p310
sI310
S'korean-f1814.wav'
p311
sI311
S'korean-f1838.wav'
p312
sI312
S'korean-f1843.wav'
p313
sI313
S'korean-f1943.wav'
p314
sI314
S'korean-f1946.wav'
p315
sI315
S'korean-f239.wav'
p316
sI316
S'korean-f240.wav'
p317
sI317
S'korean-f241.wav'
p318
sI318
S'korean-f242.wav'
p319
sI319
S'korean-f243.wav'
p320
sI320
S'korean-f452.wav'
p321
sI321
S'korean-f759.wav'
p322
sI322
S'korean-f892.wav'
p323
sI323
S'korean-m1005.wav'
p324
sI324
S'korean-m1007.wav'
p325
sI325
S'korean-m1117.wav'
p326
sI326
S'korean-m1142.wav'
p327
sI327
S'korean-m1370.wav'
p328
sI328
S'korean-m1507.wav'
p329
sI329
S'korean-m1624.wav'
p330
sI330
S'korean-m1815.wav'
p331
sI331
S'korean-m1848.wav'
p332
sI332
S'korean-m1862.wav'
p333
sI333
S'korean-m1950.wav'
p334
sI334
S'korean-m1952.wav'
p335
sI335
S'korean-m238.wav'
p336
sI336
S'korean-m244.wav'
p337
sI337
S'korean-m474.wav'
p338
sI338
S'korean-m483.wav'
p339
sI339
S'korean-m559.wav'
p340
sI340
S'korean-m608.wav'
p341
sI341
S'macedonian-f1585.wav'
p342
sI342
S'macedonian-f1587.wav'
p343
sI343
S'macedonian-f1589.wav'
p344
sI344
S'macedonian-f1590.wav'
p345
sI345
S'macedonian-f1591.wav'
p346
sI346
S'macedonian-f1592.wav'
p347
sI347
S'macedonian-f1593.wav'
p348
sI348
S'macedonian-f1594.wav'
p349
sI349
S'macedonian-f1595.wav'
p350
sI350
S'macedonian-f1596.wav'
p351
sI351
S'macedonian-f1601.wav'
p352
sI352
S'macedonian-f1603.wav'
p353
sI353
S'macedonian-f1604.wav'
p354
sI354
S'macedonian-f1605.wav'
p355
sI355
S'macedonian-f1606.wav'
p356
sI356
S'macedonian-f1607.wav'
p357
sI357
S'macedonian-f1608.wav'
p358
sI358
S'macedonian-m1586.wav'
p359
sI359
S'macedonian-m1588.wav'
p360
sI360
S'macedonian-m1597.wav'
p361
sI361
S'macedonian-m1602.wav'
p362
sI362
S'macedonian-m253.wav'
p363
sI363
S'macedonian-m888.wav'
p364
sI364
S'macedonian-m948.wav'
p365
sI365
S'macedonian-m949.wav'
p366
sI366
S'mandarin-f1019.wav'
p367
sI367
S'mandarin-f1044.wav'
p368
sI368
S'mandarin-f1089.wav'
p369
sI369
S'mandarin-f1125.wav'
p370
sI370
S'mandarin-f1141.wav'
p371
sI371
S'mandarin-f1519.wav'
p372
sI372
S'mandarin-f1527.wav'
p373
sI373
S'mandarin-f1578.wav'
p374
sI374
S'mandarin-f1579.wav'
p375
sI375
S'mandarin-f1580.wav'
p376
sI376
S'mandarin-f1581.wav'
p377
sI377
S'mandarin-f1582.wav'
p378
sI378
S'mandarin-f1583.wav'
p379
sI379
S'mandarin-f1615.wav'
p380
sI380
S'mandarin-f1616.wav'
p381
sI381
S'mandarin-f1617.wav'
p382
sI382
S'mandarin-f1631.wav'
p383
sI383
S'mandarin-f1636.wav'
p384
sI384
S'mandarin-f1644.wav'
p385
sI385
S'mandarin-f1793.wav'
p386
sI386
S'mandarin-f1817.wav'
p387
sI387
S'mandarin-f1900.wav'
p388
sI388
S'mandarin-f1909.wav'
p389
sI389
S'mandarin-f1910.wav'
p390
sI390
S'mandarin-f256.wav'
p391
sI391
S'mandarin-f257.wav'
p392
sI392
S'mandarin-f259.wav'
p393
sI393
S'mandarin-f260.wav'
p394
sI394
S'mandarin-f261.wav'
p395
sI395
S'mandarin-f607.wav'
p396
sI396
S'mandarin-f746.wav'
p397
sI397
S'mandarin-f872.wav'
p398
sI398
S'mandarin-f931.wav'
p399
sI399
S'mandarin-f984.wav'
p400
sI400
S'mandarin-m1154.wav'
p401
sI401
S'mandarin-m1447.wav'
p402
sI402
S'mandarin-m1490.wav'
p403
sI403
S'mandarin-m1491.wav'
p404
sI404
S'mandarin-m1541.wav'
p405
sI405
S'mandarin-m1614.wav'
p406
sI406
S'mandarin-m1630.wav'
p407
sI407
S'mandarin-m1645.wav'
p408
sI408
S'mandarin-m1736.wav'
p409
sI409
S'mandarin-m1788.wav'
p410
sI410
S'mandarin-m1792.wav'
p411
sI411
S'mandarin-m258.wav'
p412
sI412
S'mandarin-m262.wav'
p413
sI413
S'mandarin-m430.wav'
p414
sI414
S'mandarin-m451.wav'
p415
sI415
S'mandarin-m491.wav'
p416
sI416
S'mandarin-m623.wav'
p417
sI417
S'mandarin-m685.wav'
p418
sI418
S'mandarin-m719.wav'
p419
sI419
S'mandarin-m750.wav'
p420
sI420
S'mandarin-m796.wav'
p421
sI421
S'mandarin-m916.wav'
p422
sI422
S'polish-f1245.wav'
p423
sI423
S'polish-f1453.wav'
p424
sI424
S'polish-f1625.wav'
p425
sI425
S'polish-f1654.wav'
p426
sI426
S'polish-f1745.wav'
p427
sI427
S'polish-f1749.wav'
p428
sI428
S'polish-f1918.wav'
p429
sI429
S'polish-f277.wav'
p430
sI430
S'polish-f278.wav'
p431
sI431
S'polish-f279.wav'
p432
sI432
S'polish-f280.wav'
p433
sI433
S'polish-f626.wav'
p434
sI434
S'polish-f841.wav'
p435
sI435
S'polish-f842.wav'
p436
sI436
S'polish-f843.wav'
p437
sI437
S'polish-m1171.wav'
p438
sI438
S'polish-m1278.wav'
p439
sI439
S'polish-m1483.wav'
p440
sI440
S'polish-m1549.wav'
p441
sI441
S'polish-m1651.wav'
p442
sI442
S'polish-m1652.wav'
p443
sI443
S'polish-m1653.wav'
p444
sI444
S'polish-m1671.wav'
p445
sI445
S'polish-m1737.wav'
p446
sI446
S'polish-m1738.wav'
p447
sI447
S'polish-m1748.wav'
p448
sI448
S'polish-m482.wav'
p449
sI449
S'polish-m728.wav'
p450
sI450
S'polish-m769.wav'
p451
sI451
S'polish-m883.wav'
p452
sI452
S'polish-m958.wav'
p453
sI453
S'portuguese-f1109.wav'
p454
sI454
S'portuguese-f1128.wav'
p455
sI455
S'portuguese-f1187.wav'
p456
sI456
S'portuguese-f1285.wav'
p457
sI457
S'portuguese-f1389.wav'
p458
sI458
S'portuguese-f1438.wav'
p459
sI459
S'portuguese-f1454.wav'
p460
sI460
S'portuguese-f1553.wav'
p461
sI461
S'portuguese-f1922.wav'
p462
sI462
S'portuguese-f1930.wav'
p463
sI463
S'portuguese-f1941.wav'
p464
sI464
S'portuguese-f281.wav'
p465
sI465
S'portuguese-f283.wav'
p466
sI466
S'portuguese-f284.wav'
p467
sI467
S'portuguese-f495.wav'
p468
sI468
S'portuguese-f812.wav'
p469
sI469
S'portuguese-f933.wav'
p470
sI470
S'portuguese-f938.wav'
p471
sI471
S'portuguese-f960.wav'
p472
sI472
S'portuguese-f972.wav'
p473
sI473
S'portuguese-m1284.wav'
p474
sI474
S'portuguese-m1286.wav'
p475
sI475
S'portuguese-m1305.wav'
p476
sI476
S'portuguese-m1316.wav'
p477
sI477
S'portuguese-m1376.wav'
p478
sI478
S'portuguese-m1470.wav'
p479
sI479
S'portuguese-m1773.wav'
p480
sI480
S'portuguese-m1849.wav'
p481
sI481
S'portuguese-m1883.wav'
p482
sI482
S'portuguese-m282.wav'
p483
sI483
S'portuguese-m285.wav'
p484
sI484
S'portuguese-m286.wav'
p485
sI485
S'portuguese-m287.wav'
p486
sI486
S'portuguese-m288.wav'
p487
sI487
S'portuguese-m289.wav'
p488
sI488
S'portuguese-m290.wav'
p489
sI489
S'portuguese-m513.wav'
p490
sI490
S'portuguese-m520.wav'
p491
sI491
S'portuguese-m558.wav'
p492
sI492
S'portuguese-m615.wav'
p493
sI493
S'portuguese-m632.wav'
p494
sI494
S'portuguese-m806.wav'
p495
sI495
S'portuguese-m829.wav'
p496
sI496
S'portuguese-m833.wav'
p497
sI497
S'portuguese-m891.wav'
p498
sI498
S'russian-f1057.wav'
p499
sI499
S'russian-f1073.wav'
p500
sI500
S'russian-f1096.wav'
p501
sI501
S'russian-f1097.wav'
p502
sI502
S'russian-f1198.wav'
p503
sI503
S'russian-f1314.wav'
p504
sI504
S'russian-f1317.wav'
p505
sI505
S'russian-f1750.wav'
p506
sI506
S'russian-f1774.wav'
p507
sI507
S'russian-f1844.wav'
p508
sI508
S'russian-f1924.wav'
p509
sI509
S'russian-f1932.wav'
p510
sI510
S'russian-f1947.wav'
p511
sI511
S'russian-f300.wav'
p512
sI512
S'russian-f302.wav'
p513
sI513
S'russian-f303.wav'
p514
sI514
S'russian-f304.wav'
p515
sI515
S'russian-f305.wav'
p516
sI516
S'russian-f306.wav'
p517
sI517
S'russian-f307.wav'
p518
sI518
S'russian-f647.wav'
p519
sI519
S'russian-f911.wav'
p520
sI520
S'russian-f954.wav'
p521
sI521
S'russian-m1191.wav'
p522
sI522
S'russian-m1254.wav'
p523
sI523
S'russian-m1279.wav'
p524
sI524
S'russian-m1311.wav'
p525
sI525
S'russian-m1407.wav'
p526
sI526
S'russian-m1467.wav'
p527
sI527
S'russian-m1518.wav'
p528
sI528
S'russian-m1523.wav'
p529
sI529
S'russian-m1708.wav'
p530
sI530
S'russian-m299.wav'
p531
sI531
S'russian-m301.wav'
p532
sI532
S'russian-m308.wav'
p533
sI533
S'russian-m309.wav'
p534
sI534
S'russian-m460.wav'
p535
sI535
S'russian-m472.wav'
p536
sI536
S'russian-m609.wav'
p537
sI537
S'russian-m648.wav'
p538
sI538
S'russian-m671.wav'
p539
sI539
S'russian-m831.wav'
p540
sI540
S'russian-m834.wav'
p541
sI541
S'russian-m994.wav'
p542
sI542
S'spanish-f1111.wav'
p543
sI543
S'spanish-f1229.wav'
p544
sI544
S'spanish-f1230.wav'
p545
sI545
S'spanish-f1238.wav'
p546
sI546
S'spanish-f1273.wav'
p547
sI547
S'spanish-f1338.wav'
p548
sI548
S'spanish-f1344.wav'
p549
sI549
S'spanish-f1346.wav'
p550
sI550
S'spanish-f1347.wav'
p551
sI551
S'spanish-f1398.wav'
p552
sI552
S'spanish-f1399.wav'
p553
sI553
S'spanish-f1431.wav'
p554
sI554
S'spanish-f1433.wav'
p555
sI555
S'spanish-f1436.wav'
p556
sI556
S'spanish-f1444.wav'
p557
sI557
S'spanish-f1449.wav'
p558
sI558
S'spanish-f1450.wav'
p559
sI559
S'spanish-f1506.wav'
p560
sI560
S'spanish-f1508.wav'
p561
sI561
S'spanish-f1574.wav'
p562
sI562
S'spanish-f1600.wav'
p563
sI563
S'spanish-f1613.wav'
p564
sI564
S'spanish-f1732.wav'
p565
sI565
S'spanish-f1744.wav'
p566
sI566
S'spanish-f1806.wav'
p567
sI567
S'spanish-f1807.wav'
p568
sI568
S'spanish-f1823.wav'
p569
sI569
S'spanish-f1831.wav'
p570
sI570
S'spanish-f1834.wav'
p571
sI571
S'spanish-f1853.wav'
p572
sI572
S'spanish-f1869.wav'
p573
sI573
S'spanish-f1874.wav'
p574
sI574
S'spanish-f1904.wav'
p575
sI575
S'spanish-f1921.wav'
p576
sI576
S'spanish-f1923.wav'
p577
sI577
S'spanish-f325.wav'
p578
sI578
S'spanish-f327.wav'
p579
sI579
S'spanish-f328.wav'
p580
sI580
S'spanish-f331.wav'
p581
sI581
S'spanish-f333.wav'
p582
sI582
S'spanish-f337.wav'
p583
sI583
S'spanish-f343.wav'
p584
sI584
S'spanish-f344.wav'
p585
sI585
S'spanish-f345.wav'
p586
sI586
S'spanish-f346.wav'
p587
sI587
S'spanish-f449.wav'
p588
sI588
S'spanish-f575.wav'
p589
sI589
S'spanish-f712.wav'
p590
sI590
S'spanish-f715.wav'
p591
sI591
S'spanish-f716.wav'
p592
sI592
S'spanish-f718.wav'
p593
sI593
S'spanish-f777.wav'
p594
sI594
S'spanish-f915.wav'
p595
sI595
S'spanish-f925.wav'
p596
sI596
S'spanish-f959.wav'
p597
sI597
S'spanish-m1069.wav'
p598
sI598
S'spanish-m1077.wav'
p599
sI599
S'spanish-m1227.wav'
p600
sI600
S'spanish-m1231.wav'
p601
sI601
S'spanish-m1240.wav'
p602
sI602
S'spanish-m1249.wav'
p603
sI603
S'spanish-m1290.wav'
p604
sI604
S'spanish-m1301.wav'
p605
sI605
S'spanish-m1396.wav'
p606
sI606
S'spanish-m1397.wav'
p607
sI607
S'spanish-m1400.wav'
p608
sI608
S'spanish-m1401.wav'
p609
sI609
S'spanish-m1402.wav'
p610
sI610
S'spanish-m1425.wav'
p611
sI611
S'spanish-m1435.wav'
p612
sI612
S'spanish-m1439.wav'
p613
sI613
S'spanish-m1451.wav'
p614
sI614
S'spanish-m1575.wav'
p615
sI615
S'spanish-m1584.wav'
p616
sI616
S'spanish-m1621.wav'
p617
sI617
S'spanish-m1622.wav'
p618
sI618
S'spanish-m1629.wav'
p619
sI619
S'spanish-m1660.wav'
p620
sI620
S'spanish-m1680.wav'
p621
sI621
S'spanish-m1689.wav'
p622
sI622
S'spanish-m1693.wav'
p623
sI623
S'spanish-m1695.wav'
p624
sI624
S'spanish-m1747.wav'
p625
sI625
S'spanish-m1797.wav'
p626
sI626
S'spanish-m1826.wav'
p627
sI627
S'spanish-m1835.wav'
p628
sI628
S'spanish-m1840.wav'
p629
sI629
S'spanish-m1860.wav'
p630
sI630
S'spanish-m1891.wav'
p631
sI631
S'spanish-m1903.wav'
p632
sI632
S'spanish-m1916.wav'
p633
sI633
S'spanish-m1949.wav'
p634
sI634
S'spanish-m323.wav'
p635
sI635
S'spanish-m324.wav'
p636
sI636
S'spanish-m326.wav'
p637
sI637
S'spanish-m329.wav'
p638
sI638
S'spanish-m330.wav'
p639
sI639
S'spanish-m332.wav'
p640
sI640
S'spanish-m334.wav'
p641
sI641
S'spanish-m335.wav'
p642
sI642
S'spanish-m336.wav'
p643
sI643
S'spanish-m338.wav'
p644
sI644
S'spanish-m339.wav'
p645
sI645
S'spanish-m340.wav'
p646
sI646
S'spanish-m341.wav'
p647
sI647
S'spanish-m342.wav'
p648
sI648
S'spanish-m347.wav'
p649
sI649
S'spanish-m349.wav'
p650
sI650
S'spanish-m350.wav'
p651
sI651
S'spanish-m410.wav'
p652
sI652
S'spanish-m441.wav'
p653
sI653
S'spanish-m450.wav'
p654
sI654
S'spanish-m467.wav'
p655
sI655
S'spanish-m476.wav'
p656
sI656
S'spanish-m479.wav'
p657
sI657
S'spanish-m499.wav'
p658
sI658
S'spanish-m576.wav'
p659
sI659
S'spanish-m614.wav'
p660
sI660
S'spanish-m644.wav'
p661
sI661
S'spanish-m706.wav'
p662
sI662
S'spanish-m714.wav'
p663
sI663
S'spanish-m717.wav'
p664
sI664
S'spanish-m731.wav'
p665
sI665
S'spanish-m732.wav'
p666
sI666
S'spanish-m752.wav'
p667
sI667
S'spanish-m753.wav'
p668
sI668
S'spanish-m797.wav'
p669
sI669
S'spanish-m800.wav'
p670
sI670
S'spanish-m810.wav'
p671
sI671
S'spanish-m838.wav'
p672
sI672
S'spanish-m886.wav'
p673
sI673
S'spanish-m906.wav'
p674
sI674
S'spanish-m924.wav'
p675
sI675
S'spanish-m962.wav'
p676
sI676
S'turkish-f1144.wav'
p677
sI677
S'turkish-f1210.wav'
p678
sI678
S'turkish-f1291.wav'
p679
sI679
S'turkish-f1730.wav'
p680
sI680
S'turkish-f1772.wav'
p681
sI681
S'turkish-f1808.wav'
p682
sI682
S'turkish-f1929.wav'
p683
sI683
S'turkish-f381.wav'
p684
sI684
S'turkish-f385.wav'
p685
sI685
S'turkish-f634.wav'
p686
sI686
S'turkish-f686.wav'
p687
sI687
S'turkish-f735.wav'
p688
sI688
S'turkish-m1282.wav'
p689
sI689
S'turkish-m1329.wav'
p690
sI690
S'turkish-m1570.wav'
p691
sI691
S'turkish-m1704.wav'
p692
sI692
S'turkish-m382.wav'
p693
sI693
S'turkish-m383.wav'
p694
sI694
S'turkish-m384.wav'
p695
sI695
S'turkish-m386.wav'
p696
sI696
S'turkish-m387.wav'
p697
sI697
S'turkish-m478.wav'
p698
sI698
S'turkish-m532.wav'
p699
sI699
S'turkish-m578.wav'
p700
sI700
S'turkish-m672.wav'
p701
sI701
S'turkish-m736.wav'
p702
sI702
S'turkish-m745.wav'
p703
sI703
S'turkish-m763.wav'
p704
sI704
S'turkish-m926.wav'
p705
sI705
S'turkish-m971.wav'
p706
s.