(dp0
S'portuguese'
p1
I11
sS'german'
p2
I4
sS'spanish'
p3
I13
sS'japanese'
p4
I6
sS'french'
p5
I3
sS'macedonian'
p6
I8
sS'cantonese'
p7
I1
sS'russian'
p8
I12
sS'polish'
p9
I10
sS'arabic'
p10
I0
sS'turkish'
p11
I14
sS'dutch'
p12
I2
sS'mandarin'
p13
I9
sS'korean'
p14
I7
sS'italian'
p15
I5
s.